Certificate:
    Data:
        Version: 3 (0x2)
        Serial Number: 4661 (0x1235)
        Signature Algorithm: sha256WithRSAEncryption
        Issuer: C=DE, ST=Bremen, L=Bremen, O=Jacobs University Bremen
        Validity
            Not Before: May 10 11:25:09 2019 GMT
            Not After : May  9 11:25:09 2020 GMT
        Subject: C=DE, ST=Bremen, O=Jacobs University Bremen, OU=BSc Computer Science/emailAddress=d.kamov@jacobs-university.de
        Subject Public Key Info:
            Public Key Algorithm: rsaEncryption
                RSA Public-Key: (4096 bit)
                Modulus:
                    00:bc:d5:dd:5e:dc:52:8a:70:68:37:2c:8b:d6:38:
                    38:35:21:b2:3a:84:6f:bc:01:a8:c7:cf:f4:cc:7c:
                    d4:b3:bf:d5:7b:e1:4e:0e:5e:88:d2:f8:d4:72:0a:
                    fd:47:1f:c6:61:54:1a:f1:56:ae:ab:7c:65:c3:35:
                    fd:e4:3b:fd:43:f2:4e:6a:3e:55:71:a1:d5:ef:e8:
                    d7:10:b3:e5:fd:5c:a9:a0:00:38:a7:ca:3f:27:f9:
                    ce:e1:59:aa:85:46:62:95:0c:ca:b2:df:5b:ad:e7:
                    3a:26:19:bb:63:7c:f0:8b:05:d1:d3:f3:a6:f3:d9:
                    28:fa:27:56:80:6b:36:0c:0e:97:2e:8d:ae:d6:a4:
                    1b:24:6d:00:38:9d:31:f9:b3:52:33:7f:f6:2d:22:
                    a7:f8:d1:79:82:bf:f2:f9:c2:0d:95:eb:2d:95:28:
                    97:1c:26:28:cb:1c:74:e4:46:1d:88:72:1b:47:83:
                    e2:6f:b7:b2:ac:f4:df:29:e9:fd:04:70:57:a2:15:
                    a4:85:66:5c:20:a7:0e:39:dc:07:2f:86:f5:be:98:
                    5c:bc:b8:28:6d:0c:1a:16:f1:2d:17:fd:f8:43:89:
                    8a:34:7e:42:2b:0c:c4:21:d7:fa:90:ac:48:ee:b6:
                    0c:b6:33:5c:33:ec:53:a2:f1:42:52:f7:7b:a1:f5:
                    fe:97:7d:f7:1c:76:37:0f:b3:23:1f:21:d3:78:b1:
                    c0:d2:f6:24:4a:0d:f0:96:32:35:f6:43:cf:ad:3f:
                    a0:34:66:2c:7a:0d:9e:20:cf:b7:44:33:1a:3d:bd:
                    e1:74:a4:df:4d:f8:5a:b8:ad:d9:fc:aa:fd:8b:e6:
                    77:b9:19:da:5b:88:c7:6b:98:ae:41:e0:b8:27:5a:
                    31:d2:47:79:d2:ac:8d:e8:51:72:dd:ce:14:b6:c0:
                    c6:21:0d:3e:1c:b2:89:94:92:33:8e:19:21:ff:3e:
                    81:2e:1f:6d:cd:4d:73:80:51:e4:70:55:57:6c:03:
                    88:41:aa:ec:4f:f3:7e:34:5f:f1:94:4a:32:38:d1:
                    6f:3c:97:6f:ae:46:db:42:cd:0c:79:c0:69:d8:e9:
                    7d:6a:d5:dd:86:dd:c6:1f:42:7e:94:11:e1:8d:f6:
                    e3:45:0a:cb:6b:17:51:04:9f:f3:dc:84:53:16:9b:
                    b2:3e:09:e0:a6:fd:1e:6a:71:54:b4:29:e3:14:15:
                    5f:0d:b5:7c:27:8e:5a:f5:31:7f:7a:65:d3:02:14:
                    fc:cd:06:8d:2c:df:df:a7:a4:15:8f:62:4b:5d:ce:
                    b5:f0:f0:1c:73:98:7c:17:f2:84:63:33:7f:96:ad:
                    ff:d8:7a:41:09:59:1c:b0:a3:d1:ee:ff:d6:88:4b:
                    b7:6b:65
                Exponent: 65537 (0x10001)
        X509v3 extensions:
            X509v3 Basic Constraints: 
                CA:FALSE
            Netscape Comment: 
                OpenSSL Generated Certificate
            X509v3 Subject Key Identifier: 
                95:B1:23:68:29:60:67:15:74:27:5C:EE:BA:92:C6:34:55:F7:90:8B
            X509v3 Authority Key Identifier: 
                keyid:73:03:2E:B5:3C:66:CD:6E:73:C0:36:0E:27:0B:3A:CA:39:34:D2:64

    Signature Algorithm: sha256WithRSAEncryption
         64:f8:83:62:84:43:bc:f2:27:cf:fc:70:fd:1e:68:34:46:b6:
         44:92:d0:26:04:fc:05:b6:ff:52:e1:8b:98:b4:9b:0d:e6:85:
         84:22:18:41:9d:48:16:0b:1c:8f:b7:69:d5:54:98:f2:32:57:
         6f:ec:48:8d:69:05:30:36:fd:fd:fa:10:11:33:92:4c:7d:f1:
         98:9b:82:2d:1e:84:c5:82:44:f6:81:31:ac:7f:a5:9b:2e:af:
         fb:42:34:06:9a:3a:51:a5:25:25:2d:48:44:66:8c:ed:aa:4f:
         1b:84:2a:65:82:db:52:b4:7b:ed:fb:57:63:4e:72:04:1a:59:
         a4:ca:c4:a6:fa:90:64:23:8a:ec:8a:5a:b6:94:b1:d8:e2:52:
         cb:39:c9:56:51:c3:22:f3:55:a9:d3:98:7c:95:c7:1f:55:3c:
         12:93:be:6c:33:88:27:84:d3:83:e9:3e:39:9b:21:70:1d:ed:
         2a:b7:7c:0d:7e:16:5c:ff:81:db:9c:e7:d3:fe:fc:74:68:39:
         9d:df:d2:50:ae:ec:92:e7:0a:43:93:ab:29:89:32:54:4b:f8:
         bf:21:2c:6b:39:0c:74:1a:b9:9c:21:c9:4e:73:37:d3:9f:8a:
         4a:ea:2e:50:43:ca:f4:1b:1a:f1:8e:c8:4f:82:d6:90:54:7a:
         2f:c6:4b:0d
-----BEGIN CERTIFICATE-----
MIIE1zCCA7+gAwIBAgICEjUwDQYJKoZIhvcNAQELBQAwUjELMAkGA1UEBhMCREUx
DzANBgNVBAgMBkJyZW1lbjEPMA0GA1UEBwwGQnJlbWVuMSEwHwYDVQQKDBhKYWNv
YnMgVW5pdmVyc2l0eSBCcmVtZW4wHhcNMTkwNTEwMTEyNTA5WhcNMjAwNTA5MTEy
NTA5WjCBjTELMAkGA1UEBhMCREUxDzANBgNVBAgMBkJyZW1lbjEhMB8GA1UECgwY
SmFjb2JzIFVuaXZlcnNpdHkgQnJlbWVuMR0wGwYDVQQLDBRCU2MgQ29tcHV0ZXIg
U2NpZW5jZTErMCkGCSqGSIb3DQEJARYcZC5rYW1vdkBqYWNvYnMtdW5pdmVyc2l0
eS5kZTCCAiIwDQYJKoZIhvcNAQEBBQADggIPADCCAgoCggIBALzV3V7cUopwaDcs
i9Y4ODUhsjqEb7wBqMfP9Mx81LO/1XvhTg5eiNL41HIK/UcfxmFUGvFWrqt8ZcM1
/eQ7/UPyTmo+VXGh1e/o1xCz5f1cqaAAOKfKPyf5zuFZqoVGYpUMyrLfW63nOiYZ
u2N88IsF0dPzpvPZKPonVoBrNgwOly6NrtakGyRtADidMfmzUjN/9i0ip/jReYK/
8vnCDZXrLZUolxwmKMscdORGHYhyG0eD4m+3sqz03ynp/QRwV6IVpIVmXCCnDjnc
By+G9b6YXLy4KG0MGhbxLRf9+EOJijR+QisMxCHX+pCsSO62DLYzXDPsU6LxQlL3
e6H1/pd99xx2Nw+zIx8h03ixwNL2JEoN8JYyNfZDz60/oDRmLHoNniDPt0QzGj29
4XSk3034Writ2fyq/Yvmd7kZ2luIx2uYrkHguCdaMdJHedKsjehRct3OFLbAxiEN
PhyyiZSSM44ZIf8+gS4fbc1Nc4BR5HBVV2wDiEGq7E/zfjRf8ZRKMjjRbzyXb65G
20LNDHnAadjpfWrV3Ybdxh9CfpQR4Y3240UKy2sXUQSf89yEUxabsj4J4Kb9Hmpx
VLQp4xQVXw21fCeOWvUxf3pl0wIU/M0GjSzf36ekFY9iS13OtfDwHHOYfBfyhGMz
f5at/9h6QQlZHLCj0e7/1ohLt2tlAgMBAAGjezB5MAkGA1UdEwQCMAAwLAYJYIZI
AYb4QgENBB8WHU9wZW5TU0wgR2VuZXJhdGVkIENlcnRpZmljYXRlMB0GA1UdDgQW
BBSVsSNoKWBnFXQnXO66ksY0VfeQizAfBgNVHSMEGDAWgBRzAy61PGbNbnPANg4n
CzrKOTTSZDANBgkqhkiG9w0BAQsFAAOCAQEAZPiDYoRDvPInz/xw/R5oNEa2RJLQ
JgT8Bbb/UuGLmLSbDeaFhCIYQZ1IFgscj7dp1VSY8jJXb+xIjWkFMDb9/foQETOS
TH3xmJuCLR6ExYJE9oExrH+lmy6v+0I0Bpo6UaUlJS1IRGaM7apPG4QqZYLbUrR7
7ftXY05yBBpZpMrEpvqQZCOK7IpatpSx2OJSyznJVlHDIvNVqdOYfJXHH1U8EpO+
bDOIJ4TTg+k+OZshcB3tKrd8DX4WXP+B25zn0/78dGg5nd/SUK7skucKQ5OrKYky
VEv4vyEsazkMdBq5nCHJTnM305+KSuouUEPK9Bsa8Y7IT4LWkFR6L8ZLDQ==
-----END CERTIFICATE-----
